; Function Attrs: nounwind uwtable
define hidden noundef i32 @phpdbg_do_parse(ptr noundef %0, ptr noundef %1) local_unnamed_addr #0 {
  %3 = load i8, ptr %1, align 1
  %.not = icmp eq i8 %3, 0
  br i1 %.not, label %10, label %4

4:                                                ; preds = %2
  %5 = load ptr, ptr getelementptr inbounds (%struct._zend_phpdbg_globals, ptr @phpdbg_globals, i64 0, i32 7), align 8
  %.not5 = icmp eq ptr %5, null
  br i1 %.not5, label %7, label %6

6:                                                ; preds = %4
  tail call void @free(ptr noundef nonnull %5) #12
  br label %7

7:                                                ; preds = %6, %4
  %8 = tail call noalias ptr @strdup(ptr noundef nonnull %1) #12
  store ptr %8, ptr getelementptr inbounds (%struct._zend_phpdbg_globals, ptr @phpdbg_globals, i64 0, i32 7), align 8
  tail call void @phpdbg_init_lexer(ptr noundef %0, ptr noundef nonnull %1) #12
  %9 = tail call i32 @phpdbg_parse(), !range !4
  br label %10

10:                                               ; preds = %2, %7
  %.0 = phi i32 [ %9, %7 ], [ 0, %2 ]
  ret i32 %.0
}